target datalayout = "e-m:e-p270:32:32-p271:32:32-p272:64:64-i64:64-i128:128-f80:128-n8:16:32:64-S128"
target triple = "x86_64-pc-linux-gnu"

%"class.duckdb_re2::Regexp::ParseState" = type { i32, %"class.duckdb_re2::StringPiece", ptr, ptr, i32, i32 }
%"class.duckdb_re2::StringPiece" = type { ptr, i64 }
%"class.duckdb_re2::Regexp" = type { i8, i8, i16, i16, i16, %union.anon, ptr, %union.anon.0 }
%union.anon = type { ptr }
%union.anon.0 = type { %struct.anon.1 }
%struct.anon.1 = type { i32, ptr }
%struct.anon.3 = type { ptr, ptr }
%"class.duckdb_re2::CharClassBuilder" = type { i32, i32, i32, %"class.std::set" }
%"class.std::set" = type { %"class.std::_Rb_tree" }
%"class.std::_Rb_tree" = type { %"struct.std::_Rb_tree<duckdb_re2::RuneRange, duckdb_re2::RuneRange, std::_Identity<duckdb_re2::RuneRange>, duckdb_re2::RuneRangeLess>::_Rb_tree_impl" }
%"struct.std::_Rb_tree<duckdb_re2::RuneRange, duckdb_re2::RuneRange, std::_Identity<duckdb_re2::RuneRange>, duckdb_re2::RuneRangeLess>::_Rb_tree_impl" = type { [8 x i8], %"struct.std::_Rb_tree_header" }
%"struct.std::_Rb_tree_header" = type { %"struct.std::_Rb_tree_node_base", i64 }
%"struct.std::_Rb_tree_node_base" = type { i32, ptr, ptr, ptr }
%"class.duckdb_re2::RegexpStatus" = type { i32, %"class.duckdb_re2::StringPiece", ptr }

; Function Attrs: mustprogress nounwind uwtable
define linkonce_odr hidden noundef ptr @_ZNKSt8_Rb_treeIN10duckdb_re29RuneRangeES1_St9_IdentityIS1_ENS0_13RuneRangeLessESaIS1_EE9_M_mbeginEv(ptr noundef nonnull align 8 dereferenceable(48) %0) #0 comdat align 2 {
  %2 = alloca ptr, align 8
  store ptr %0, ptr %2, align 8, !tbaa !215
  %3 = load ptr, ptr %2, align 8
  %4 = getelementptr inbounds nuw %"class.std::_Rb_tree", ptr %3, i32 0, i32 0
  %5 = getelementptr inbounds i8, ptr %4, i64 8
  %6 = getelementptr inbounds nuw %"struct.std::_Rb_tree_header", ptr %5, i32 0, i32 0
  %7 = getelementptr inbounds nuw %"struct.std::_Rb_tree_node_base", ptr %6, i32 0, i32 1
  %8 = load ptr, ptr %7, align 8, !tbaa !229
  ret ptr %8
}

; Function Attrs: mustprogress nounwind uwtable
define linkonce_odr hidden void @_ZNSt15__new_allocatorISt13_Rb_tree_nodeIN10duckdb_re29RuneRangeEEED2Ev(ptr noundef nonnull align 1 dereferenceable(1) %0) unnamed_addr #0 comdat align 2 {
  %2 = alloca ptr, align 8
  store ptr %0, ptr %2, align 8, !tbaa !220
  ret void
}

; Function Attrs: mustprogress nounwind uwtable
define linkonce_odr hidden noundef ptr @_ZNSt8_Rb_treeIN10duckdb_re29RuneRangeES1_St9_IdentityIS1_ENS0_13RuneRangeLessESaIS1_EE8_M_beginEv(ptr noundef nonnull align 8 dereferenceable(48) %0) #0 comdat align 2 {
  %2 = alloca ptr, align 8
  store ptr %0, ptr %2, align 8, !tbaa !215
  %3 = load ptr, ptr %2, align 8
  %4 = call noundef ptr @_ZNKSt8_Rb_treeIN10duckdb_re29RuneRangeES1_St9_IdentityIS1_ENS0_13RuneRangeLessESaIS1_EE9_M_mbeginEv(ptr noundef nonnull align 8 dereferenceable(48) %3) #19
  ret ptr %4
}

; Function Attrs: mustprogress nounwind uwtable
define linkonce_odr hidden void @_ZNSt8_Rb_treeIN10duckdb_re29RuneRangeES1_St9_IdentityIS1_ENS0_13RuneRangeLessESaIS1_EED2Ev(ptr noundef nonnull align 8 dereferenceable(48) %0) unnamed_addr #0 comdat align 2 personality ptr @__gxx_personality_v0 {
  %2 = alloca ptr, align 8
  store ptr %0, ptr %2, align 8, !tbaa !215
  %3 = load ptr, ptr %2, align 8
  %4 = call noundef ptr @_ZNSt8_Rb_treeIN10duckdb_re29RuneRangeES1_St9_IdentityIS1_ENS0_13RuneRangeLessESaIS1_EE8_M_beginEv(ptr noundef nonnull align 8 dereferenceable(48) %3) #19
  invoke void @_ZNSt8_Rb_treeIN10duckdb_re29RuneRangeES1_St9_IdentityIS1_ENS0_13RuneRangeLessESaIS1_EE8_M_eraseEPSt13_Rb_tree_nodeIS1_E(ptr noundef nonnull align 8 dereferenceable(48) %3, ptr noundef %4)
          to label %5 unwind label %7

5:                                                ; preds = %1
  %6 = getelementptr inbounds nuw %"class.std::_Rb_tree", ptr %3, i32 0, i32 0
  call void @_ZNSt15__new_allocatorISt13_Rb_tree_nodeIN10duckdb_re29RuneRangeEEED2Ev(ptr noundef nonnull align 8 dereferenceable(48) %6) #19
  ret void

7:                                                ; preds = %1
  %8 = landingpad { ptr, i32 }
          catch ptr null
  %9 = extractvalue { ptr, i32 } %8, 0
  call void @__clang_call_terminate(ptr %9) #22
  unreachable
}

; Function Attrs: mustprogress nounwind uwtable
define linkonce_odr hidden void @_ZNSt3setIN10duckdb_re29RuneRangeENS0_13RuneRangeLessESaIS1_EED2Ev(ptr noundef nonnull align 8 dereferenceable(48) %0) unnamed_addr #0 comdat align 2 {
  %2 = alloca ptr, align 8
  store ptr %0, ptr %2, align 8, !tbaa !213
  %3 = load ptr, ptr %2, align 8
  %4 = getelementptr inbounds nuw %"class.std::set", ptr %3, i32 0, i32 0
  call void @_ZNSt8_Rb_treeIN10duckdb_re29RuneRangeES1_St9_IdentityIS1_ENS0_13RuneRangeLessESaIS1_EED2Ev(ptr noundef nonnull align 8 dereferenceable(48) %4) #19
  ret void
}

; Function Attrs: inlinehint mustprogress nounwind uwtable
define linkonce_odr hidden void @_ZN10duckdb_re216CharClassBuilderD2Ev(ptr noundef nonnull align 8 dereferenceable(64) %0) unnamed_addr #3 comdat align 2 {
  %2 = alloca ptr, align 8
  store ptr %0, ptr %2, align 8, !tbaa !39
  %3 = load ptr, ptr %2, align 8
  %4 = getelementptr inbounds nuw %"class.duckdb_re2::CharClassBuilder", ptr %3, i32 0, i32 3
  call void @_ZNSt3setIN10duckdb_re29RuneRangeENS0_13RuneRangeLessESaIS1_EED2Ev(ptr noundef nonnull align 8 dereferenceable(48) %4) #19
  ret void
}

; Function Attrs: mustprogress nounwind uwtable
define linkonce_odr hidden noundef ptr @_ZN10duckdb_re26Regexp3subEv(ptr noundef nonnull align 8 dereferenceable(40) %0) #0 comdat align 2 {
  %2 = alloca ptr, align 8
  %3 = alloca ptr, align 8
  store ptr %0, ptr %3, align 8, !tbaa !29
  %4 = load ptr, ptr %3, align 8
  %5 = getelementptr inbounds nuw %"class.duckdb_re2::Regexp", ptr %4, i32 0, i32 4
  %6 = load i16, ptr %5, align 2, !tbaa !79
  %7 = zext i16 %6 to i32
  %8 = icmp sle i32 %7, 1
  br i1 %8, label %9, label %11

9:                                                ; preds = %1
  %10 = getelementptr inbounds nuw %"class.duckdb_re2::Regexp", ptr %4, i32 0, i32 5
  store ptr %10, ptr %2, align 8
  br label %14

11:                                               ; preds = %1
  %12 = getelementptr inbounds nuw %"class.duckdb_re2::Regexp", ptr %4, i32 0, i32 5
  %13 = load ptr, ptr %12, align 8, !tbaa !33
  store ptr %13, ptr %2, align 8
  br label %14

14:                                               ; preds = %11, %9
  %15 = load ptr, ptr %2, align 8
  ret ptr %15
}

; Function Attrs: mustprogress uwtable
define hidden noundef ptr @_ZN10duckdb_re26Regexp10ParseState12FinishRegexpEPS0_(ptr noundef nonnull align 8 dereferenceable(48) %0, ptr noundef %1) #1 align 2 {
  %3 = alloca ptr, align 8
  %4 = alloca ptr, align 8
  %5 = alloca ptr, align 8
  %6 = alloca ptr, align 8
  store ptr %0, ptr %4, align 8, !tbaa !7
  store ptr %1, ptr %5, align 8, !tbaa !29
  %7 = load ptr, ptr %5, align 8, !tbaa !29
  %8 = icmp eq ptr %7, null
  br i1 %8, label %9, label %10

9:                                                ; preds = %2
  store ptr null, ptr %3, align 8
  br label %43

10:                                               ; preds = %2
  %11 = load ptr, ptr %5, align 8, !tbaa !29
  %12 = getelementptr inbounds nuw %"class.duckdb_re2::Regexp", ptr %11, i32 0, i32 6
  store ptr null, ptr %12, align 8, !tbaa !30
  %13 = load ptr, ptr %5, align 8, !tbaa !29
  %14 = getelementptr inbounds nuw %"class.duckdb_re2::Regexp", ptr %13, i32 0, i32 0
  %15 = load i8, ptr %14, align 8, !tbaa !36
  %16 = zext i8 %15 to i32
  %17 = icmp eq i32 %16, 20
  br i1 %17, label %18, label %41

18:                                               ; preds = %10
  %19 = load ptr, ptr %5, align 8, !tbaa !29
  %20 = getelementptr inbounds nuw %"class.duckdb_re2::Regexp", ptr %19, i32 0, i32 7
  %21 = getelementptr inbounds nuw %struct.anon.3, ptr %20, i32 0, i32 1
  %22 = load ptr, ptr %21, align 8, !tbaa !33
  %23 = icmp ne ptr %22, null
  br i1 %23, label %24, label %41

24:                                               ; preds = %18
  call void @llvm.lifetime.start.p0(i64 8, ptr %6) #19
  %25 = load ptr, ptr %5, align 8, !tbaa !29
  %26 = getelementptr inbounds nuw %"class.duckdb_re2::Regexp", ptr %25, i32 0, i32 7
  %27 = getelementptr inbounds nuw %struct.anon.3, ptr %26, i32 0, i32 1
  %28 = load ptr, ptr %27, align 8, !tbaa !33
  store ptr %28, ptr %6, align 8, !tbaa !39
  %29 = load ptr, ptr %5, align 8, !tbaa !29
  %30 = getelementptr inbounds nuw %"class.duckdb_re2::Regexp", ptr %29, i32 0, i32 7
  %31 = getelementptr inbounds nuw %struct.anon.3, ptr %30, i32 0, i32 1
  store ptr null, ptr %31, align 8, !tbaa !33
  %32 = load ptr, ptr %6, align 8, !tbaa !39
  %33 = call noundef ptr @_ZN10duckdb_re216CharClassBuilder12GetCharClassEv(ptr noundef nonnull align 8 dereferenceable(64) %32)
  %34 = load ptr, ptr %5, align 8, !tbaa !29
  %35 = getelementptr inbounds nuw %"class.duckdb_re2::Regexp", ptr %34, i32 0, i32 7
  %36 = getelementptr inbounds nuw %struct.anon.3, ptr %35, i32 0, i32 0
  store ptr %33, ptr %36, align 8, !tbaa !33
  %37 = load ptr, ptr %6, align 8, !tbaa !39
  %38 = icmp eq ptr %37, null
  br i1 %38, label %40, label %39

39:                                               ; preds = %24
  call void @_ZN10duckdb_re216CharClassBuilderD2Ev(ptr noundef nonnull align 8 dereferenceable(64) %37) #19
  call void @_ZdlPv(ptr noundef %37) #21
  br label %40

40:                                               ; preds = %39, %24
  call void @llvm.lifetime.end.p0(i64 8, ptr %6) #19
  br label %41

41:                                               ; preds = %40, %18, %10
  %42 = load ptr, ptr %5, align 8, !tbaa !29
  store ptr %42, ptr %3, align 8
  br label %43

43:                                               ; preds = %41, %9
  %44 = load ptr, ptr %3, align 8
  ret ptr %44
}

; Function Attrs: mustprogress uwtable
define linkonce_odr hidden void @_ZN10duckdb_re26Regexp8AllocSubEi(ptr noundef nonnull align 8 dereferenceable(40) %0, i32 noundef %1) #1 comdat align 2 {
  %3 = alloca ptr, align 8
  %4 = alloca i32, align 4
  store ptr %0, ptr %3, align 8, !tbaa !29
  store i32 %1, ptr %4, align 4, !tbaa !3
  %5 = load ptr, ptr %3, align 8
  %6 = load i32, ptr %4, align 4, !tbaa !3
  %7 = icmp sgt i32 %6, 1
  br i1 %7, label %8, label %17

8:                                                ; preds = %2
  %9 = load i32, ptr %4, align 4, !tbaa !3
  %10 = sext i32 %9 to i64
  %11 = call { i64, i1 } @llvm.umul.with.overflow.i64(i64 %10, i64 8)
  %12 = extractvalue { i64, i1 } %11, 1
  %13 = extractvalue { i64, i1 } %11, 0
  %14 = select i1 %12, i64 -1, i64 %13
  %15 = call noalias noundef nonnull ptr @_Znam(i64 noundef %14) #23
  %16 = getelementptr inbounds nuw %"class.duckdb_re2::Regexp", ptr %5, i32 0, i32 5
  store ptr %15, ptr %16, align 8, !tbaa !33
  br label %17

17:                                               ; preds = %8, %2
  %18 = load i32, ptr %4, align 4, !tbaa !3
  %19 = trunc i32 %18 to i16
  %20 = getelementptr inbounds nuw %"class.duckdb_re2::Regexp", ptr %5, i32 0, i32 4
  store i16 %19, ptr %20, align 2, !tbaa !79
  ret void
}

; Function Attrs: mustprogress nounwind uwtable
define linkonce_odr hidden noundef i32 @_ZN10duckdb_re26Regexp11parse_flagsEv(ptr noundef nonnull align 8 dereferenceable(40) %0) #0 comdat align 2 {
  %2 = alloca ptr, align 8
  store ptr %0, ptr %2, align 8, !tbaa !29
  %3 = load ptr, ptr %2, align 8
  %4 = getelementptr inbounds nuw %"class.duckdb_re2::Regexp", ptr %3, i32 0, i32 2
  %5 = load i16, ptr %4, align 2, !tbaa !44
  %6 = zext i16 %5 to i32
  ret i32 %6
}

; Function Attrs: mustprogress nounwind uwtable
define linkonce_odr hidden void @_ZN10duckdb_re212RegexpStatus13set_error_argERKNS_11StringPieceE(ptr noundef nonnull align 8 dereferenceable(32) %0, ptr noundef nonnull align 8 dereferenceable(16) %1) #0 comdat align 2 {
  %3 = alloca ptr, align 8
  %4 = alloca ptr, align 8
  store ptr %0, ptr %3, align 8, !tbaa !14
  store ptr %1, ptr %4, align 8, !tbaa !12
  %5 = load ptr, ptr %3, align 8
  %6 = load ptr, ptr %4, align 8, !tbaa !12
  %7 = getelementptr inbounds nuw %"class.duckdb_re2::RegexpStatus", ptr %5, i32 0, i32 1
  call void @llvm.memcpy.p0.p0.i64(ptr align 8 %7, ptr align 8 %6, i64 16, i1 false), !tbaa.struct !22
  ret void
}

; Function Attrs: mustprogress nounwind uwtable
define linkonce_odr hidden void @_ZN10duckdb_re212RegexpStatus8set_codeENS_16RegexpStatusCodeE(ptr noundef nonnull align 8 dereferenceable(32) %0, i32 noundef %1) #0 comdat align 2 {
  %3 = alloca ptr, align 8
  %4 = alloca i32, align 4
  store ptr %0, ptr %3, align 8, !tbaa !14
  store i32 %1, ptr %4, align 4, !tbaa !75
  %5 = load ptr, ptr %3, align 8
  %6 = load i32, ptr %4, align 4, !tbaa !75
  %7 = getelementptr inbounds nuw %"class.duckdb_re2::RegexpStatus", ptr %5, i32 0, i32 0
  store i32 %6, ptr %7, align 8, !tbaa !77
  ret void
}

; Function Attrs: mustprogress nounwind uwtable
define linkonce_odr hidden noundef i32 @_ZN10duckdb_re26Regexp2opEv(ptr noundef nonnull align 8 dereferenceable(40) %0) #0 comdat align 2 {
  %2 = alloca ptr, align 8
  store ptr %0, ptr %2, align 8, !tbaa !29
  %3 = load ptr, ptr %2, align 8
  %4 = getelementptr inbounds nuw %"class.duckdb_re2::Regexp", ptr %3, i32 0, i32 0
  %5 = load i8, ptr %4, align 8, !tbaa !36
  %6 = zext i8 %5 to i32
  ret i32 %6
}

; Function Attrs: mustprogress uwtable
define hidden void @_ZN10duckdb_re26Regexp10ParseState13DoAlternationEv(ptr noundef nonnull align 8 dereferenceable(48) %0) #1 align 2 {
  %2 = alloca ptr, align 8
  %3 = alloca ptr, align 8
  store ptr %0, ptr %2, align 8, !tbaa !7
  %4 = load ptr, ptr %2, align 8
  %5 = call noundef zeroext i1 @_ZN10duckdb_re26Regexp10ParseState13DoVerticalBarEv(ptr noundef nonnull align 8 dereferenceable(48) %4)
  call void @llvm.lifetime.start.p0(i64 8, ptr %3) #19
  %6 = getelementptr inbounds nuw %"class.duckdb_re2::Regexp::ParseState", ptr %4, i32 0, i32 3
  %7 = load ptr, ptr %6, align 8, !tbaa !26
  store ptr %7, ptr %3, align 8, !tbaa !29
  %8 = load ptr, ptr %3, align 8, !tbaa !29
  %9 = getelementptr inbounds nuw %"class.duckdb_re2::Regexp", ptr %8, i32 0, i32 6
  %10 = load ptr, ptr %9, align 8, !tbaa !30
  %11 = getelementptr inbounds nuw %"class.duckdb_re2::Regexp::ParseState", ptr %4, i32 0, i32 3
  store ptr %10, ptr %11, align 8, !tbaa !26
  %12 = load ptr, ptr %3, align 8, !tbaa !29
  call void @_ZN10duckdb_re26Regexp6DecrefEv(ptr noundef nonnull align 8 dereferenceable(40) %12)
  call void @_ZN10duckdb_re26Regexp10ParseState10DoCollapseENS_8RegexpOpE(ptr noundef nonnull align 8 dereferenceable(48) %4, i32 noundef 6)
  call void @llvm.lifetime.end.p0(i64 8, ptr %3) #19
  ret void
}

; Function Attrs: mustprogress uwtable
define hidden noundef zeroext i1 @_ZN10duckdb_re26Regexp10ParseState12DoRightParenEv(ptr noundef nonnull align 8 dereferenceable(48) %0) #1 align 2 {
  %2 = alloca i1, align 1
  %3 = alloca ptr, align 8
  %4 = alloca ptr, align 8
  %5 = alloca ptr, align 8
  %6 = alloca i32, align 4
  %7 = alloca ptr, align 8
  store ptr %0, ptr %3, align 8, !tbaa !7
  %8 = load ptr, ptr %3, align 8
  call void @_ZN10duckdb_re26Regexp10ParseState13DoAlternationEv(ptr noundef nonnull align 8 dereferenceable(48) %8)
  call void @llvm.lifetime.start.p0(i64 8, ptr %4) #19
  call void @llvm.lifetime.start.p0(i64 8, ptr %5) #19
  %9 = getelementptr inbounds nuw %"class.duckdb_re2::Regexp::ParseState", ptr %8, i32 0, i32 3
  %10 = load ptr, ptr %9, align 8, !tbaa !26
  store ptr %10, ptr %4, align 8, !tbaa !29
  %11 = icmp eq ptr %10, null
  br i1 %11, label %21, label %12

12:                                               ; preds = %1
  %13 = load ptr, ptr %4, align 8, !tbaa !29
  %14 = getelementptr inbounds nuw %"class.duckdb_re2::Regexp", ptr %13, i32 0, i32 6
  %15 = load ptr, ptr %14, align 8, !tbaa !30
  store ptr %15, ptr %5, align 8, !tbaa !29
  %16 = icmp eq ptr %15, null
  br i1 %16, label %21, label %17

17:                                               ; preds = %12
  %18 = load ptr, ptr %5, align 8, !tbaa !29
  %19 = call noundef i32 @_ZN10duckdb_re26Regexp2opEv(ptr noundef nonnull align 8 dereferenceable(40) %18)
  %20 = icmp ne i32 %19, 22
  br i1 %20, label %21, label %27

21:                                               ; preds = %17, %12, %1
  %22 = getelementptr inbounds nuw %"class.duckdb_re2::Regexp::ParseState", ptr %8, i32 0, i32 2
  %23 = load ptr, ptr %22, align 8, !tbaa !25
  call void @_ZN10duckdb_re212RegexpStatus8set_codeENS_16RegexpStatusCodeE(ptr noundef nonnull align 8 dereferenceable(32) %23, i32 noundef 7)
  %24 = getelementptr inbounds nuw %"class.duckdb_re2::Regexp::ParseState", ptr %8, i32 0, i32 2
  %25 = load ptr, ptr %24, align 8, !tbaa !25
  %26 = getelementptr inbounds nuw %"class.duckdb_re2::Regexp::ParseState", ptr %8, i32 0, i32 1
  call void @_ZN10duckdb_re212RegexpStatus13set_error_argERKNS_11StringPieceE(ptr noundef nonnull align 8 dereferenceable(32) %25, ptr noundef nonnull align 8 dereferenceable(16) %26)
  store i1 false, ptr %2, align 1
  store i32 1, ptr %6, align 4
  br label %61

27:                                               ; preds = %17
  %28 = load ptr, ptr %5, align 8, !tbaa !29
  %29 = getelementptr inbounds nuw %"class.duckdb_re2::Regexp", ptr %28, i32 0, i32 6
  %30 = load ptr, ptr %29, align 8, !tbaa !30
  %31 = getelementptr inbounds nuw %"class.duckdb_re2::Regexp::ParseState", ptr %8, i32 0, i32 3
  store ptr %30, ptr %31, align 8, !tbaa !26
  call void @llvm.lifetime.start.p0(i64 8, ptr %7) #19
  %32 = load ptr, ptr %5, align 8, !tbaa !29
  store ptr %32, ptr %7, align 8, !tbaa !29
  %33 = load ptr, ptr %7, align 8, !tbaa !29
  %34 = call noundef i32 @_ZN10duckdb_re26Regexp11parse_flagsEv(ptr noundef nonnull align 8 dereferenceable(40) %33)
  %35 = getelementptr inbounds nuw %"class.duckdb_re2::Regexp::ParseState", ptr %8, i32 0, i32 0
  store i32 %34, ptr %35, align 8, !tbaa !16
  %36 = load ptr, ptr %7, align 8, !tbaa !29
  %37 = getelementptr inbounds nuw %"class.duckdb_re2::Regexp", ptr %36, i32 0, i32 7
  %38 = getelementptr inbounds nuw %struct.anon.1, ptr %37, i32 0, i32 0
  %39 = load i32, ptr %38, align 8, !tbaa !33
  %40 = icmp sgt i32 %39, 0
  br i1 %40, label %41, label %55

41:                                               ; preds = %27
  %42 = load ptr, ptr %7, align 8, !tbaa !29
  %43 = getelementptr inbounds nuw %"class.duckdb_re2::Regexp", ptr %42, i32 0, i32 0
  store i8 11, ptr %43, align 8, !tbaa !36
  %44 = load ptr, ptr %7, align 8, !tbaa !29
  call void @_ZN10duckdb_re26Regexp8AllocSubEi(ptr noundef nonnull align 8 dereferenceable(40) %44, i32 noundef 1)
  %45 = load ptr, ptr %4, align 8, !tbaa !29
  %46 = call noundef ptr @_ZN10duckdb_re26Regexp10ParseState12FinishRegexpEPS0_(ptr noundef nonnull align 8 dereferenceable(48) %8, ptr noundef %45)
  %47 = load ptr, ptr %7, align 8, !tbaa !29
  %48 = call noundef ptr @_ZN10duckdb_re26Regexp3subEv(ptr noundef nonnull align 8 dereferenceable(40) %47)
  %49 = getelementptr inbounds ptr, ptr %48, i64 0
  store ptr %46, ptr %49, align 8, !tbaa !29
  %50 = load ptr, ptr %7, align 8, !tbaa !29
  %51 = call noundef zeroext i1 @_ZN10duckdb_re26Regexp13ComputeSimpleEv(ptr noundef nonnull align 8 dereferenceable(40) %50)
  %52 = zext i1 %51 to i8
  %53 = load ptr, ptr %7, align 8, !tbaa !29
  %54 = getelementptr inbounds nuw %"class.duckdb_re2::Regexp", ptr %53, i32 0, i32 1
  store i8 %52, ptr %54, align 1, !tbaa !43
  br label %58

55:                                               ; preds = %27
  %56 = load ptr, ptr %7, align 8, !tbaa !29
  call void @_ZN10duckdb_re26Regexp6DecrefEv(ptr noundef nonnull align 8 dereferenceable(40) %56)
  %57 = load ptr, ptr %4, align 8, !tbaa !29
  store ptr %57, ptr %7, align 8, !tbaa !29
  br label %58

58:                                               ; preds = %55, %41
  %59 = load ptr, ptr %7, align 8, !tbaa !29
  %60 = call noundef zeroext i1 @_ZN10duckdb_re26Regexp10ParseState10PushRegexpEPS0_(ptr noundef nonnull align 8 dereferenceable(48) %8, ptr noundef %59)
  store i1 %60, ptr %2, align 1
  store i32 1, ptr %6, align 4
  call void @llvm.lifetime.end.p0(i64 8, ptr %7) #19
  br label %61

61:                                               ; preds = %58, %21
  call void @llvm.lifetime.end.p0(i64 8, ptr %5) #19
  call void @llvm.lifetime.end.p0(i64 8, ptr %4) #19
  %62 = load i1, ptr %2, align 1
  ret i1 %62
}