; Function Attrs: mustprogress uwtable
define hidden noundef zeroext i1 @_ZN10duckdb_re26Regexp10ParseState12DoRightParenEv(ptr noundef nonnull align 8 captures(none) dereferenceable(48) %0) local_unnamed_addr #9 align 2 personality ptr @__gxx_personality_v0 {
  %2 = tail call noundef zeroext i1 @_ZN10duckdb_re26Regexp10ParseState13DoVerticalBarEv(ptr noundef nonnull align 8 dereferenceable(48) %0)
  %3 = getelementptr inbounds nuw i8, ptr %0, i64 32
  %4 = load ptr, ptr %3, align 8, !tbaa !20
  %5 = getelementptr inbounds nuw i8, ptr %4, i64 16
  %6 = load ptr, ptr %5, align 8, !tbaa !23
  store ptr %6, ptr %3, align 8, !tbaa !20
  tail call void @_ZN10duckdb_re26Regexp6DecrefEv(ptr noundef nonnull align 8 dereferenceable(40) %4)
  tail call void @_ZN10duckdb_re26Regexp10ParseState10DoCollapseENS_8RegexpOpE(ptr noundef nonnull align 8 dereferenceable(48) %0, i32 noundef 6)
  %7 = load ptr, ptr %3, align 8, !tbaa !20
  %8 = icmp eq ptr %7, null
  br i1 %8, label %15, label %9

9:                                                ; preds = %1
  %10 = getelementptr inbounds nuw i8, ptr %7, i64 16
  %11 = load ptr, ptr %10, align 8, !tbaa !23
  %12 = icmp eq ptr %11, null
  br i1 %12, label %15, label %13

13:                                               ; preds = %9
  %14 = load i8, ptr %11, align 8, !tbaa !26
  %.not = icmp eq i8 %14, 22
  br i1 %.not, label %20, label %15

15:                                               ; preds = %13, %9, %1
  %16 = getelementptr inbounds nuw i8, ptr %0, i64 24
  %17 = load ptr, ptr %16, align 8, !tbaa !19
  store i32 7, ptr %17, align 8, !tbaa !58
  %18 = getelementptr inbounds nuw i8, ptr %0, i64 8
  %19 = getelementptr inbounds nuw i8, ptr %17, i64 8
  tail call void @llvm.memcpy.p0.p0.i64(ptr noundef nonnull align 8 dereferenceable(16) %19, ptr noundef nonnull align 8 dereferenceable(16) %18, i64 16, i1 false), !tbaa.struct !16
  br label %57

20:                                               ; preds = %13
  %21 = getelementptr inbounds nuw i8, ptr %11, i64 16
  %22 = load ptr, ptr %21, align 8, !tbaa !23
  store ptr %22, ptr %3, align 8, !tbaa !20
  %23 = getelementptr inbounds nuw i8, ptr %11, i64 2
  %24 = load i16, ptr %23, align 2, !tbaa !50
  %25 = zext i16 %24 to i32
  store i32 %25, ptr %0, align 8, !tbaa !7
  %26 = getelementptr inbounds nuw i8, ptr %11, i64 24
  %27 = load i32, ptr %26, align 8, !tbaa !27
  %28 = icmp sgt i32 %27, 0
  br i1 %28, label %29, label %54

29:                                               ; preds = %20
  store i8 11, ptr %11, align 8, !tbaa !26
  %30 = getelementptr inbounds nuw i8, ptr %11, i64 6
  store i16 1, ptr %30, align 2, !tbaa !62
  store ptr null, ptr %10, align 8, !tbaa !23
  %31 = load i8, ptr %7, align 8, !tbaa !26
  %32 = icmp eq i8 %31, 20
  br i1 %32, label %33, label %_ZN10duckdb_re26Regexp10ParseState12FinishRegexpEPS0_.exit.thread

33:                                               ; preds = %29
  %34 = getelementptr inbounds nuw i8, ptr %7, i64 32
  %35 = load ptr, ptr %34, align 8, !tbaa !27
  %.not.i = icmp eq ptr %35, null
  br i1 %.not.i, label %_ZN10duckdb_re26Regexp10ParseState12FinishRegexpEPS0_.exit.thread, label %36

36:                                               ; preds = %33
  %37 = getelementptr inbounds nuw i8, ptr %7, i64 24
  store ptr null, ptr %34, align 8, !tbaa !27
  %38 = tail call noundef ptr @_ZN10duckdb_re216CharClassBuilder12GetCharClassEv(ptr noundef nonnull align 8 dereferenceable(64) %35)
  store ptr %38, ptr %37, align 8, !tbaa !27
  %39 = getelementptr inbounds nuw i8, ptr %35, i64 16
  %40 = getelementptr inbounds nuw i8, ptr %35, i64 32
  %41 = load ptr, ptr %40, align 8, !tbaa !34
  invoke void @_ZNSt8_Rb_treeIN10duckdb_re29RuneRangeES1_St9_IdentityIS1_ENS0_13RuneRangeLessESaIS1_EE8_M_eraseEPSt13_Rb_tree_nodeIS1_E(ptr noundef nonnull align 8 dereferenceable(48) %39, ptr noundef %41)
          to label %_ZN10duckdb_re26Regexp10ParseState12FinishRegexpEPS0_.exit unwind label %42

42:                                               ; preds = %36
  %43 = landingpad { ptr, i32 }
          catch ptr null
  %44 = extractvalue { ptr, i32 } %43, 0
  tail call void @__clang_call_terminate(ptr %44) #31
  unreachable

_ZN10duckdb_re26Regexp10ParseState12FinishRegexpEPS0_.exit.thread: ; preds = %29, %33
  %45 = getelementptr inbounds nuw i8, ptr %11, i64 8
  br label %49

_ZN10duckdb_re26Regexp10ParseState12FinishRegexpEPS0_.exit: ; preds = %36
  tail call void @_ZdlPv(ptr noundef nonnull %35) #30
  %.pre = load i16, ptr %30, align 2, !tbaa !62
  %.pre.fr = freeze i16 %.pre
  %46 = icmp ult i16 %.pre.fr, 2
  %47 = getelementptr inbounds nuw i8, ptr %11, i64 8
  %48 = load ptr, ptr %47, align 8
  %spec.select = select i1 %46, ptr %47, ptr %48
  br label %49

49:                                               ; preds = %_ZN10duckdb_re26Regexp10ParseState12FinishRegexpEPS0_.exit, %_ZN10duckdb_re26Regexp10ParseState12FinishRegexpEPS0_.exit.thread
  %50 = phi ptr [ %45, %_ZN10duckdb_re26Regexp10ParseState12FinishRegexpEPS0_.exit.thread ], [ %spec.select, %_ZN10duckdb_re26Regexp10ParseState12FinishRegexpEPS0_.exit ]
  store ptr %7, ptr %50, align 8, !tbaa !63
  %51 = tail call noundef zeroext i1 @_ZN10duckdb_re26Regexp13ComputeSimpleEv(ptr noundef nonnull align 8 dereferenceable(40) %11)
  %52 = zext i1 %51 to i8
  %53 = getelementptr inbounds nuw i8, ptr %11, i64 1
  store i8 %52, ptr %53, align 1, !tbaa !49
  br label %55

54:                                               ; preds = %20
  tail call void @_ZN10duckdb_re26Regexp6DecrefEv(ptr noundef nonnull align 8 dereferenceable(40) %11)
  br label %55

55:                                               ; preds = %54, %49
  %.0 = phi ptr [ %11, %49 ], [ %7, %54 ]
  %56 = tail call noundef zeroext i1 @_ZN10duckdb_re26Regexp10ParseState10PushRegexpEPS0_(ptr noundef nonnull align 8 dereferenceable(48) %0, ptr noundef nonnull %.0)
  br label %57

57:                                               ; preds = %55, %15
  %.017 = phi i1 [ false, %15 ], [ true, %55 ]
  ret i1 %.017
}